target datalayout = "e-m:e-p270:32:32-p271:32:32-p272:64:64-i64:64-i128:128-f80:128-n8:16:32:64-S128"
target triple = "x86_64-pc-linux-gnu"

%struct.pointf_s = type { double, double }
%struct.Ppoly_t = type { ptr, i64 }
%struct.Pedge_t = type { %struct.pointf_s, %struct.pointf_s }

@.str = private unnamed_addr constant [20 x i8] c"cannot allocate ps\0A\00", align 1
@stderr = external global ptr, align 8
@.str.2 = private unnamed_addr constant [58 x i8] c"integer overflow when trying to allocate %zu * %zu bytes\0A\00", align 1
@.str.3 = private unnamed_addr constant [49 x i8] c"out of memory when trying to allocate %zu bytes\0A\00", align 1

; Function Attrs: inlinehint nounwind uwtable
define internal ptr @gv_calloc(i64 noundef %0, i64 noundef %1) #3 {
  %3 = alloca i64, align 8
  %4 = alloca i64, align 8
  %5 = alloca ptr, align 8
  store i64 %0, ptr %3, align 8, !tbaa !20
  store i64 %1, ptr %4, align 8, !tbaa !20
  %6 = load i64, ptr %3, align 8, !tbaa !20
  %7 = icmp ugt i64 %6, 0
  br i1 %7, label %8, label %18

8:                                                ; preds = %2
  %9 = load i64, ptr %3, align 8, !tbaa !20
  %10 = udiv i64 -1, %9
  %11 = load i64, ptr %4, align 8, !tbaa !20
  %12 = icmp ult i64 %10, %11
  br i1 %12, label %13, label %18

13:                                               ; preds = %8
  %14 = load ptr, ptr @stderr, align 8, !tbaa !28
  %15 = load i64, ptr %3, align 8, !tbaa !20
  %16 = load i64, ptr %4, align 8, !tbaa !20
  %17 = call i32 (ptr, ptr, ...) @fprintf(ptr noundef %14, ptr noundef @.str.2, i64 noundef %15, i64 noundef %16) #13
  call void @graphviz_exit(i32 noundef 1) #15
  unreachable

18:                                               ; preds = %8, %2
  call void @llvm.lifetime.start.p0(i64 8, ptr %5) #13
  %19 = load i64, ptr %3, align 8, !tbaa !20
  %20 = load i64, ptr %4, align 8, !tbaa !20
  %21 = call noalias ptr @calloc(i64 noundef %19, i64 noundef %20) #14
  store ptr %21, ptr %5, align 8, !tbaa !30
  %22 = load i64, ptr %3, align 8, !tbaa !20
  %23 = icmp ugt i64 %22, 0
  br i1 %23, label %24, label %36

24:                                               ; preds = %18
  %25 = load i64, ptr %4, align 8, !tbaa !20
  %26 = icmp ugt i64 %25, 0
  br i1 %26, label %27, label %36

27:                                               ; preds = %24
  %28 = load ptr, ptr %5, align 8, !tbaa !30
  %29 = icmp eq ptr %28, null
  br i1 %29, label %30, label %36

30:                                               ; preds = %27
  %31 = load ptr, ptr @stderr, align 8, !tbaa !28
  %32 = load i64, ptr %3, align 8, !tbaa !20
  %33 = load i64, ptr %4, align 8, !tbaa !20
  %34 = mul i64 %32, %33
  %35 = call i32 (ptr, ptr, ...) @fprintf(ptr noundef %31, ptr noundef @.str.3, i64 noundef %34) #13
  call void @graphviz_exit(i32 noundef 1) #15
  unreachable

36:                                               ; preds = %27, %24, %18
  %37 = load ptr, ptr %5, align 8, !tbaa !30
  call void @llvm.lifetime.end.p0(i64 8, ptr %5) #13
  ret ptr %37
}

; Function Attrs: nounwind uwtable
define ptr @simpleSplineRoute(double %0, double %1, double %2, double %3, ptr %4, i64 %5, ptr noundef %6, i32 noundef %7) #0 {
  %9 = alloca ptr, align 8
  %10 = alloca %struct.pointf_s, align 8
  %11 = alloca %struct.pointf_s, align 8
  %12 = alloca %struct.Ppoly_t, align 8
  %13 = alloca ptr, align 8
  %14 = alloca i32, align 4
  %15 = alloca %struct.Ppoly_t, align 8
  %16 = alloca %struct.Ppoly_t, align 8
  %17 = alloca [2 x %struct.pointf_s], align 16
  %18 = alloca [2 x %struct.pointf_s], align 16
  %19 = alloca i32, align 4
  %20 = alloca ptr, align 8
  %21 = alloca i64, align 8
  %22 = alloca ptr, align 8
  %23 = alloca i64, align 8
  %24 = getelementptr inbounds nuw { double, double }, ptr %10, i32 0, i32 0
  store double %0, ptr %24, align 8
  %25 = getelementptr inbounds nuw { double, double }, ptr %10, i32 0, i32 1
  store double %1, ptr %25, align 8
  %26 = getelementptr inbounds nuw { double, double }, ptr %11, i32 0, i32 0
  store double %2, ptr %26, align 8
  %27 = getelementptr inbounds nuw { double, double }, ptr %11, i32 0, i32 1
  store double %3, ptr %27, align 8
  %28 = getelementptr inbounds nuw { ptr, i64 }, ptr %12, i32 0, i32 0
  store ptr %4, ptr %28, align 8
  %29 = getelementptr inbounds nuw { ptr, i64 }, ptr %12, i32 0, i32 1
  store i64 %5, ptr %29, align 8
  store ptr %6, ptr %13, align 8, !tbaa !3
  store i32 %7, ptr %14, align 4, !tbaa !8
  call void @llvm.lifetime.start.p0(i64 16, ptr %15) #13
  call void @llvm.lifetime.start.p0(i64 16, ptr %16) #13
  call void @llvm.lifetime.start.p0(i64 32, ptr %17) #13
  call void @llvm.lifetime.start.p0(i64 32, ptr %18) #13
  %30 = getelementptr inbounds nuw %struct.pointf_s, ptr %10, i32 0, i32 0
  %31 = load double, ptr %30, align 8, !tbaa !10
  %32 = getelementptr inbounds [2 x %struct.pointf_s], ptr %17, i64 0, i64 0
  %33 = getelementptr inbounds nuw %struct.pointf_s, ptr %32, i32 0, i32 0
  store double %31, ptr %33, align 16, !tbaa !10
  %34 = getelementptr inbounds nuw %struct.pointf_s, ptr %10, i32 0, i32 1
  %35 = load double, ptr %34, align 8, !tbaa !13
  %36 = getelementptr inbounds [2 x %struct.pointf_s], ptr %17, i64 0, i64 0
  %37 = getelementptr inbounds nuw %struct.pointf_s, ptr %36, i32 0, i32 1
  store double %35, ptr %37, align 8, !tbaa !13
  %38 = getelementptr inbounds nuw %struct.pointf_s, ptr %11, i32 0, i32 0
  %39 = load double, ptr %38, align 8, !tbaa !10
  %40 = getelementptr inbounds [2 x %struct.pointf_s], ptr %17, i64 0, i64 1
  %41 = getelementptr inbounds nuw %struct.pointf_s, ptr %40, i32 0, i32 0
  store double %39, ptr %41, align 16, !tbaa !10
  %42 = getelementptr inbounds nuw %struct.pointf_s, ptr %11, i32 0, i32 1
  %43 = load double, ptr %42, align 8, !tbaa !13
  %44 = getelementptr inbounds [2 x %struct.pointf_s], ptr %17, i64 0, i64 1
  %45 = getelementptr inbounds nuw %struct.pointf_s, ptr %44, i32 0, i32 1
  store double %43, ptr %45, align 8, !tbaa !13
  %46 = getelementptr inbounds [2 x %struct.pointf_s], ptr %17, i64 0, i64 0
  %47 = call i32 @Pshortestpath(ptr noundef %12, ptr noundef %46, ptr noundef %15)
  %48 = icmp slt i32 %47, 0
  br i1 %48, label %49, label %50

49:                                               ; preds = %8
  store ptr null, ptr %9, align 8
  store i32 1, ptr %19, align 4
  br label %149

50:                                               ; preds = %8
  %51 = load i32, ptr %14, align 4, !tbaa !8
  %52 = icmp ne i32 %51, 0
  br i1 %52, label %53, label %58

53:                                               ; preds = %50
  %54 = getelementptr inbounds nuw { ptr, i64 }, ptr %15, i32 0, i32 0
  %55 = load ptr, ptr %54, align 8
  %56 = getelementptr inbounds nuw { ptr, i64 }, ptr %15, i32 0, i32 1
  %57 = load i64, ptr %56, align 8
  call void @make_polyline(ptr %55, i64 %57, ptr noundef %16)
  br label %118

58:                                               ; preds = %50
  call void @llvm.lifetime.start.p0(i64 8, ptr %20) #13
  %59 = getelementptr inbounds nuw %struct.Ppoly_t, ptr %12, i32 0, i32 1
  %60 = load i64, ptr %59, align 8, !tbaa !14
  %61 = call ptr @gv_calloc(i64 noundef %60, i64 noundef 32)
  store ptr %61, ptr %20, align 8, !tbaa !18
  call void @llvm.lifetime.start.p0(i64 8, ptr %21) #13
  store i64 0, ptr %21, align 8, !tbaa !20
  br label %62

62:                                               ; preds = %89, %58
  %63 = load i64, ptr %21, align 8, !tbaa !20
  %64 = getelementptr inbounds nuw %struct.Ppoly_t, ptr %12, i32 0, i32 1
  %65 = load i64, ptr %64, align 8, !tbaa !14
  %66 = icmp ult i64 %63, %65
  br i1 %66, label %68, label %67

67:                                               ; preds = %62
  store i32 2, ptr %19, align 4
  call void @llvm.lifetime.end.p0(i64 8, ptr %21) #13
  br label %92

68:                                               ; preds = %62
  %69 = load ptr, ptr %20, align 8, !tbaa !18
  %70 = load i64, ptr %21, align 8, !tbaa !20
  %71 = getelementptr inbounds nuw %struct.Pedge_t, ptr %69, i64 %70
  %72 = getelementptr inbounds nuw %struct.Pedge_t, ptr %71, i32 0, i32 0
  %73 = getelementptr inbounds nuw %struct.Ppoly_t, ptr %12, i32 0, i32 0
  %74 = load ptr, ptr %73, align 8, !tbaa !21
  %75 = load i64, ptr %21, align 8, !tbaa !20
  %76 = getelementptr inbounds nuw %struct.pointf_s, ptr %74, i64 %75
  call void @llvm.memcpy.p0.p0.i64(ptr align 8 %72, ptr align 8 %76, i64 16, i1 false), !tbaa.struct !22
  %77 = load ptr, ptr %20, align 8, !tbaa !18
  %78 = load i64, ptr %21, align 8, !tbaa !20
  %79 = getelementptr inbounds nuw %struct.Pedge_t, ptr %77, i64 %78
  %80 = getelementptr inbounds nuw %struct.Pedge_t, ptr %79, i32 0, i32 1
  %81 = getelementptr inbounds nuw %struct.Ppoly_t, ptr %12, i32 0, i32 0
  %82 = load ptr, ptr %81, align 8, !tbaa !21
  %83 = load i64, ptr %21, align 8, !tbaa !20
  %84 = add i64 %83, 1
  %85 = getelementptr inbounds nuw %struct.Ppoly_t, ptr %12, i32 0, i32 1
  %86 = load i64, ptr %85, align 8, !tbaa !14
  %87 = urem i64 %84, %86
  %88 = getelementptr inbounds nuw %struct.pointf_s, ptr %82, i64 %87
  call void @llvm.memcpy.p0.p0.i64(ptr align 8 %80, ptr align 8 %88, i64 16, i1 false), !tbaa.struct !22
  br label %89

89:                                               ; preds = %68
  %90 = load i64, ptr %21, align 8, !tbaa !20
  %91 = add i64 %90, 1
  store i64 %91, ptr %21, align 8, !tbaa !20
  br label %62, !llvm.loop !24

92:                                               ; preds = %67
  %93 = getelementptr inbounds [2 x %struct.pointf_s], ptr %18, i64 0, i64 0
  %94 = getelementptr inbounds nuw %struct.pointf_s, ptr %93, i32 0, i32 1
  store double 0.000000e+00, ptr %94, align 8, !tbaa !13
  %95 = getelementptr inbounds [2 x %struct.pointf_s], ptr %18, i64 0, i64 0
  %96 = getelementptr inbounds nuw %struct.pointf_s, ptr %95, i32 0, i32 0
  store double 0.000000e+00, ptr %96, align 16, !tbaa !10
  %97 = getelementptr inbounds [2 x %struct.pointf_s], ptr %18, i64 0, i64 1
  %98 = getelementptr inbounds nuw %struct.pointf_s, ptr %97, i32 0, i32 1
  store double 0.000000e+00, ptr %98, align 8, !tbaa !13
  %99 = getelementptr inbounds [2 x %struct.pointf_s], ptr %18, i64 0, i64 1
  %100 = getelementptr inbounds nuw %struct.pointf_s, ptr %99, i32 0, i32 0
  store double 0.000000e+00, ptr %100, align 16, !tbaa !10
  %101 = load ptr, ptr %20, align 8, !tbaa !18
  %102 = getelementptr inbounds nuw %struct.Ppoly_t, ptr %12, i32 0, i32 1
  %103 = load i64, ptr %102, align 8, !tbaa !14
  %104 = getelementptr inbounds [2 x %struct.pointf_s], ptr %18, i64 0, i64 0
  %105 = getelementptr inbounds nuw { ptr, i64 }, ptr %15, i32 0, i32 0
  %106 = load ptr, ptr %105, align 8
  %107 = getelementptr inbounds nuw { ptr, i64 }, ptr %15, i32 0, i32 1
  %108 = load i64, ptr %107, align 8
  %109 = call i32 @Proutespline(ptr noundef %101, i64 noundef %103, ptr %106, i64 %108, ptr noundef %104, ptr noundef %16)
  %110 = icmp slt i32 %109, 0
  br i1 %110, label %111, label %113

111:                                              ; preds = %92
  %112 = load ptr, ptr %20, align 8, !tbaa !18
  call void @free(ptr noundef %112) #13
  store ptr null, ptr %9, align 8
  store i32 1, ptr %19, align 4
  br label %115

113:                                              ; preds = %92
  %114 = load ptr, ptr %20, align 8, !tbaa !18
  call void @free(ptr noundef %114) #13
  store i32 0, ptr %19, align 4
  br label %115

115:                                              ; preds = %113, %111
  call void @llvm.lifetime.end.p0(i64 8, ptr %20) #13
  %116 = load i32, ptr %19, align 4
  switch i32 %116, label %149 [
    i32 0, label %117
  ]

117:                                              ; preds = %115
  br label %118

118:                                              ; preds = %117, %53
  call void @llvm.lifetime.start.p0(i64 8, ptr %22) #13
  %119 = getelementptr inbounds nuw %struct.Ppoly_t, ptr %16, i32 0, i32 1
  %120 = load i64, ptr %119, align 8, !tbaa !14
  %121 = call noalias ptr @calloc(i64 noundef %120, i64 noundef 16) #14
  store ptr %121, ptr %22, align 8, !tbaa !26
  %122 = load ptr, ptr %22, align 8, !tbaa !26
  %123 = icmp eq ptr %122, null
  br i1 %123, label %124, label %125

124:                                              ; preds = %118
  call void (ptr, ...) @agerrorf(ptr noundef @.str)
  store ptr null, ptr %9, align 8
  store i32 1, ptr %19, align 4
  br label %148

125:                                              ; preds = %118
  call void @llvm.lifetime.start.p0(i64 8, ptr %23) #13
  store i64 0, ptr %23, align 8, !tbaa !20
  br label %126

126:                                              ; preds = %140, %125
  %127 = load i64, ptr %23, align 8, !tbaa !20
  %128 = getelementptr inbounds nuw %struct.Ppoly_t, ptr %16, i32 0, i32 1
  %129 = load i64, ptr %128, align 8, !tbaa !14
  %130 = icmp ult i64 %127, %129
  br i1 %130, label %132, label %131

131:                                              ; preds = %126
  store i32 5, ptr %19, align 4
  call void @llvm.lifetime.end.p0(i64 8, ptr %23) #13
  br label %143

132:                                              ; preds = %126
  %133 = load ptr, ptr %22, align 8, !tbaa !26
  %134 = load i64, ptr %23, align 8, !tbaa !20
  %135 = getelementptr inbounds nuw %struct.pointf_s, ptr %133, i64 %134
  %136 = getelementptr inbounds nuw %struct.Ppoly_t, ptr %16, i32 0, i32 0
  %137 = load ptr, ptr %136, align 8, !tbaa !21
  %138 = load i64, ptr %23, align 8, !tbaa !20
  %139 = getelementptr inbounds nuw %struct.pointf_s, ptr %137, i64 %138
  call void @llvm.memcpy.p0.p0.i64(ptr align 8 %135, ptr align 8 %139, i64 16, i1 false), !tbaa.struct !22
  br label %140

140:                                              ; preds = %132
  %141 = load i64, ptr %23, align 8, !tbaa !20
  %142 = add i64 %141, 1
  store i64 %142, ptr %23, align 8, !tbaa !20
  br label %126, !llvm.loop !27

143:                                              ; preds = %131
  %144 = getelementptr inbounds nuw %struct.Ppoly_t, ptr %16, i32 0, i32 1
  %145 = load i64, ptr %144, align 8, !tbaa !14
  %146 = load ptr, ptr %13, align 8, !tbaa !3
  store i64 %145, ptr %146, align 8, !tbaa !20
  %147 = load ptr, ptr %22, align 8, !tbaa !26
  store ptr %147, ptr %9, align 8
  store i32 1, ptr %19, align 4
  br label %148

148:                                              ; preds = %143, %124
  call void @llvm.lifetime.end.p0(i64 8, ptr %22) #13
  br label %149

149:                                              ; preds = %148, %115, %49
  call void @llvm.lifetime.end.p0(i64 32, ptr %18) #13
  call void @llvm.lifetime.end.p0(i64 32, ptr %17) #13
  call void @llvm.lifetime.end.p0(i64 16, ptr %16) #13
  call void @llvm.lifetime.end.p0(i64 16, ptr %15) #13
  %150 = load ptr, ptr %9, align 8
  ret ptr %150
}