; Function Attrs: nounwind uwtable
define noalias noundef ptr @simpleSplineRoute(double %0, double %1, double %2, double %3, ptr %4, i64 %5, ptr noundef writeonly captures(none) %6, i32 noundef %7) local_unnamed_addr #0 {
  %9 = alloca %struct.Ppoly_t, align 8
  %10 = alloca %struct.Ppoly_t, align 8
  %11 = alloca %struct.Ppoly_t, align 8
  %12 = alloca [2 x %struct.pointf_s], align 16
  %13 = alloca [2 x %struct.pointf_s], align 16
  store ptr %4, ptr %9, align 8
  %14 = getelementptr inbounds nuw i8, ptr %9, i64 8
  store i64 %5, ptr %14, align 8
  call void @llvm.lifetime.start.p0(i64 16, ptr nonnull %10) #19
  call void @llvm.lifetime.start.p0(i64 16, ptr nonnull %11) #19
  call void @llvm.lifetime.start.p0(i64 32, ptr nonnull %12) #19
  call void @llvm.lifetime.start.p0(i64 32, ptr nonnull %13) #19
  store double %0, ptr %12, align 16, !tbaa !3
  %15 = getelementptr inbounds nuw i8, ptr %12, i64 8
  store double %1, ptr %15, align 8, !tbaa !8
  %16 = getelementptr inbounds nuw i8, ptr %12, i64 16
  store double %2, ptr %16, align 16, !tbaa !3
  %17 = getelementptr inbounds nuw i8, ptr %12, i64 24
  store double %3, ptr %17, align 8, !tbaa !8
  %18 = call i32 @Pshortestpath(ptr noundef nonnull %9, ptr noundef nonnull %12, ptr noundef nonnull %10) #19
  %19 = icmp slt i32 %18, 0
  br i1 %19, label %62, label %20

20:                                               ; preds = %8
  %.not = icmp eq i32 %7, 0
  br i1 %.not, label %25, label %21

21:                                               ; preds = %20
  %22 = load ptr, ptr %10, align 8
  %23 = getelementptr inbounds nuw i8, ptr %10, i64 8
  %24 = load i64, ptr %23, align 8
  call void @make_polyline(ptr %22, i64 %24, ptr noundef nonnull %11) #19
  br label %54

25:                                               ; preds = %20
  %26 = load i64, ptr %14, align 8, !tbaa !9
  %.not.i = icmp eq i64 %26, 0
  br i1 %.not.i, label %gv_calloc.exit.thread, label %28

gv_calloc.exit.thread:                            ; preds = %25
  %27 = call noalias ptr @calloc(i64 noundef 0, i64 noundef 32) #20
  br label %._crit_edge

28:                                               ; preds = %25
  %mul.ov.i = icmp ugt i64 %26, 576460752303423487
  br i1 %mul.ov.i, label %29, label %32

29:                                               ; preds = %28
  %30 = load ptr, ptr @stderr, align 8, !tbaa !14
  %31 = call i32 (ptr, ptr, ...) @fprintf(ptr noundef %30, ptr noundef nonnull @.str.2, i64 noundef %26, i64 noundef 32) #21
  call fastcc void @graphviz_exit() #22
  unreachable

32:                                               ; preds = %28
  %33 = call noalias ptr @calloc(i64 noundef %26, i64 noundef 32) #20
  %34 = icmp eq ptr %33, null
  br i1 %34, label %35, label %.lr.ph

35:                                               ; preds = %32
  %36 = load ptr, ptr @stderr, align 8, !tbaa !14
  %37 = shl nuw i64 %26, 5
  %38 = call i32 (ptr, ptr, ...) @fprintf(ptr noundef %36, ptr noundef nonnull @.str.3, i64 noundef %37) #21
  call fastcc void @graphviz_exit() #22
  unreachable

.lr.ph:                                           ; preds = %32
  %39 = load ptr, ptr %9, align 8, !tbaa !16
  br label %46

._crit_edge:                                      ; preds = %46, %gv_calloc.exit.thread
  %40 = phi ptr [ %27, %gv_calloc.exit.thread ], [ %33, %46 ]
  call void @llvm.memset.p0.i64(ptr noundef nonnull align 16 dereferenceable(32) %13, i8 0, i64 32, i1 false)
  %41 = load ptr, ptr %10, align 8
  %42 = getelementptr inbounds nuw i8, ptr %10, i64 8
  %43 = load i64, ptr %42, align 8
  %44 = call i32 @Proutespline(ptr noundef %40, i64 noundef %26, ptr %41, i64 %43, ptr noundef nonnull %13, ptr noundef nonnull %11) #19
  %45 = icmp sgt i32 %44, -1
  call void @free(ptr noundef %40) #19
  br i1 %45, label %54, label %62

46:                                               ; preds = %.lr.ph, %46
  %.02428 = phi i64 [ 0, %.lr.ph ], [ %50, %46 ]
  %47 = getelementptr inbounds nuw %struct.Pedge_t, ptr %33, i64 %.02428
  %48 = getelementptr inbounds nuw %struct.pointf_s, ptr %39, i64 %.02428
  call void @llvm.memcpy.p0.p0.i64(ptr noundef nonnull align 8 dereferenceable(16) %47, ptr noundef nonnull align 8 dereferenceable(16) %48, i64 16, i1 false), !tbaa.struct !17
  %49 = getelementptr inbounds nuw i8, ptr %47, i64 16
  %50 = add nuw i64 %.02428, 1
  %51 = icmp eq i64 %50, %26
  %52 = select i1 %51, i64 0, i64 %50
  %53 = getelementptr inbounds nuw %struct.pointf_s, ptr %39, i64 %52
  call void @llvm.memcpy.p0.p0.i64(ptr noundef nonnull align 8 dereferenceable(16) %49, ptr noundef nonnull align 8 dereferenceable(16) %53, i64 16, i1 false), !tbaa.struct !17
  %exitcond.not = icmp eq i64 %50, %26
  br i1 %exitcond.not, label %._crit_edge, label %46, !llvm.loop !19

54:                                               ; preds = %._crit_edge, %21
  %55 = getelementptr inbounds nuw i8, ptr %11, i64 8
  %56 = load i64, ptr %55, align 8, !tbaa !9
  %57 = call noalias ptr @calloc(i64 noundef %56, i64 noundef 16) #20
  %58 = icmp eq ptr %57, null
  br i1 %58, label %61, label %.preheader

.preheader:                                       ; preds = %54
  %.not33 = icmp eq i64 %56, 0
  br i1 %.not33, label %._crit_edge31, label %.lr.ph30

.lr.ph30:                                         ; preds = %.preheader
  %59 = load ptr, ptr %11, align 8, !tbaa !16
  %60 = shl nuw i64 %56, 4
  call void @llvm.memcpy.p0.p0.i64(ptr nonnull align 8 %57, ptr align 8 %59, i64 %60, i1 false)
  br label %._crit_edge31

61:                                               ; preds = %54
  call void (ptr, ...) @agerrorf(ptr noundef nonnull @.str) #19
  br label %62

._crit_edge31:                                    ; preds = %.lr.ph30, %.preheader
  store i64 %56, ptr %6, align 8, !tbaa !21
  br label %62

62:                                               ; preds = %61, %._crit_edge31, %8, %._crit_edge
  %.023 = phi ptr [ null, %._crit_edge ], [ null, %8 ], [ null, %61 ], [ %57, %._crit_edge31 ]
  call void @llvm.lifetime.end.p0(i64 32, ptr nonnull %13) #19
  call void @llvm.lifetime.end.p0(i64 32, ptr nonnull %12) #19
  call void @llvm.lifetime.end.p0(i64 16, ptr nonnull %11) #19
  call void @llvm.lifetime.end.p0(i64 16, ptr nonnull %10) #19
  ret ptr %.023
}